; Function Attrs: nounwind uwtable
define internal range(i32 -12, 1) i32 @aqt_read_header(ptr noundef %0) #1 {
  %2 = alloca i64, align 8
  %3 = alloca [4096 x i8], align 16
  %4 = getelementptr inbounds nuw i8, ptr %0, i64 24
  %5 = load ptr, ptr %4, align 8, !tbaa !11
  %6 = tail call ptr @avformat_new_stream(ptr noundef %0, ptr noundef null) #6
  call void @llvm.lifetime.start.p0(i64 8, ptr nonnull %2) #6
  store i64 -9223372036854775808, ptr %2, align 8, !tbaa !26
  %.not = icmp eq ptr %6, null
  br i1 %.not, label %58, label %7

7:                                                ; preds = %1
  %8 = getelementptr inbounds nuw i8, ptr %5, i64 40
  %9 = getelementptr inbounds nuw i8, ptr %5, i64 44
  %10 = load i32, ptr %9, align 4, !tbaa !27
  %11 = load i32, ptr %8, align 8, !tbaa !32
  tail call void @avpriv_set_pts_info(ptr noundef nonnull %6, i32 noundef 64, i32 noundef %10, i32 noundef %11) #6
  %12 = getelementptr inbounds nuw i8, ptr %6, i64 16
  %13 = load ptr, ptr %12, align 8, !tbaa !33
  store i32 3, ptr %13, align 8, !tbaa !39
  %14 = getelementptr inbounds nuw i8, ptr %13, i64 4
  store i32 94210, ptr %14, align 4, !tbaa !42
  %15 = getelementptr inbounds nuw i8, ptr %0, i64 32
  %16 = load ptr, ptr %15, align 8, !tbaa !43
  %17 = tail call i32 @avio_feof(ptr noundef %16) #6
  %.not4865 = icmp eq i32 %17, 0
  br i1 %.not4865, label %.lr.ph, label %.loopexit

.lr.ph:                                           ; preds = %7
  %18 = getelementptr inbounds nuw i8, ptr %5, i64 8
  br label %19

19:                                               ; preds = %.lr.ph, %54
  %.03268 = phi ptr [ null, %.lr.ph ], [ %.133, %54 ]
  %.03567 = phi i64 [ 0, %.lr.ph ], [ %.136, %54 ]
  %.03866 = phi i32 [ 1, %.lr.ph ], [ %.139, %54 ]
  call void @llvm.lifetime.start.p0(i64 4096, ptr nonnull %3) #6
  %20 = load ptr, ptr %15, align 8, !tbaa !43
  %21 = call i32 @ff_get_line(ptr noundef %20, ptr noundef nonnull %3, i32 noundef 4096) #6
  %.not49 = icmp eq i32 %21, 0
  br i1 %.not49, label %.thread60, label %22

.thread60:                                        ; preds = %19
  call void @llvm.lifetime.end.p0(i64 4096, ptr nonnull %3) #6
  br label %.loopexit

22:                                               ; preds = %19
  %23 = call i64 @strcspn(ptr noundef nonnull %3, ptr noundef nonnull @.str.9) #7
  %24 = getelementptr inbounds nuw [4096 x i8], ptr %3, i64 0, i64 %23
  store i8 0, ptr %24, align 1, !tbaa !44
  %25 = call i32 (ptr, ptr, ...) @__isoc99_sscanf(ptr noundef nonnull %3, ptr noundef nonnull @.str.10, ptr noundef nonnull %2) #6
  %26 = icmp eq i32 %25, 1
  br i1 %26, label %27, label %39

27:                                               ; preds = %22
  %28 = load ptr, ptr %15, align 8, !tbaa !43
  %29 = call i64 @avio_seek(ptr noundef %28, i64 noundef 0, i32 noundef 1) #6
  %.not54 = icmp eq ptr %.03268, null
  br i1 %.not54, label %54, label %30

30:                                               ; preds = %27
  %31 = load i64, ptr %2, align 8, !tbaa !26
  %32 = getelementptr inbounds nuw i8, ptr %.03268, i64 8
  %33 = load i64, ptr %32, align 8, !tbaa !45
  %.not55 = icmp slt i64 %31, %33
  br i1 %.not55, label %54, label %34

34:                                               ; preds = %30
  %35 = sub i64 %31, %33
  %36 = icmp ult i64 %35, 9223372036854775807
  br i1 %36, label %37, label %54

37:                                               ; preds = %34
  %38 = getelementptr inbounds nuw i8, ptr %.03268, i64 64
  store i64 %35, ptr %38, align 8, !tbaa !46
  br label %54

39:                                               ; preds = %22
  %40 = load i8, ptr %3, align 16, !tbaa !44
  %.not50 = icmp eq i8 %40, 0
  br i1 %.not50, label %54, label %41

41:                                               ; preds = %39
  %.not51 = icmp eq i32 %.03866, 0
  br i1 %.not51, label %42, label %44

42:                                               ; preds = %41
  %43 = call ptr @ff_subtitles_queue_insert(ptr noundef nonnull %18, ptr noundef nonnull @.str.11, i64 noundef 1, i32 noundef 1) #6
  %.not52 = icmp eq ptr %43, null
  br i1 %.not52, label %.thread, label %44

44:                                               ; preds = %42, %41
  %45 = call i64 @strlen(ptr noundef nonnull dereferenceable(1) %3) #7
  %46 = zext i1 %.not51 to i32
  %47 = call ptr @ff_subtitles_queue_insert(ptr noundef nonnull %18, ptr noundef nonnull %3, i64 noundef %45, i32 noundef %46) #6
  %.not53 = icmp eq ptr %47, null
  br i1 %.not53, label %.thread, label %48

48:                                               ; preds = %44
  br i1 %.not51, label %54, label %49

49:                                               ; preds = %48
  %50 = load i64, ptr %2, align 8, !tbaa !26
  %51 = getelementptr inbounds nuw i8, ptr %47, i64 8
  store i64 %50, ptr %51, align 8, !tbaa !45
  %52 = getelementptr inbounds nuw i8, ptr %47, i64 64
  store i64 -1, ptr %52, align 8, !tbaa !46
  %53 = getelementptr inbounds nuw i8, ptr %47, i64 72
  store i64 %.03567, ptr %53, align 8, !tbaa !47
  br label %54

.thread:                                          ; preds = %42, %44
  call void @llvm.lifetime.end.p0(i64 4096, ptr nonnull %3) #6
  br label %58

54:                                               ; preds = %27, %39, %37, %34, %30, %49, %48
  %.139 = phi i32 [ 1, %27 ], [ %.03866, %39 ], [ 1, %37 ], [ 1, %34 ], [ 1, %30 ], [ 0, %49 ], [ 0, %48 ]
  %.136 = phi i64 [ %29, %27 ], [ %.03567, %39 ], [ %29, %37 ], [ %29, %34 ], [ %29, %30 ], [ %.03567, %49 ], [ %.03567, %48 ]
  %.133 = phi ptr [ null, %27 ], [ %.03268, %39 ], [ null, %37 ], [ null, %34 ], [ null, %30 ], [ %47, %49 ], [ %47, %48 ]
  call void @llvm.lifetime.end.p0(i64 4096, ptr nonnull %3) #6
  %55 = load ptr, ptr %15, align 8, !tbaa !43
  %56 = call i32 @avio_feof(ptr noundef %55) #6
  %.not48 = icmp eq i32 %56, 0
  br i1 %.not48, label %19, label %.loopexit

.loopexit:                                        ; preds = %54, %7, %.thread60
  %57 = getelementptr inbounds nuw i8, ptr %5, i64 8
  call void @ff_subtitles_queue_finalize(ptr noundef nonnull %0, ptr noundef nonnull %57) #6
  br label %58

58:                                               ; preds = %.thread, %1, %.loopexit
  %.0 = phi i32 [ 0, %.loopexit ], [ -12, %1 ], [ -12, %.thread ]
  call void @llvm.lifetime.end.p0(i64 8, ptr nonnull %2) #6
  ret i32 %.0
}